target datalayout = "e-m:e-p270:32:32-p271:32:32-p272:64:64-i64:64-i128:128-f80:128-n8:16:32:64-S128"
target triple = "x86_64-pc-linux-gnu"

%struct.Agobj_s = type { %struct.Agtag_s, ptr }
%struct.Agtag_s = type { i32, i64 }

; Function Attrs: nounwind uwtable
define internal i32 @edgeidcmpf(ptr noundef %0, ptr noundef %1) #0 {
  %3 = alloca i32, align 4
  %4 = alloca ptr, align 8
  %5 = alloca ptr, align 8
  %6 = alloca ptr, align 8
  %7 = alloca ptr, align 8
  %8 = alloca i32, align 4
  store ptr %0, ptr %4, align 8, !tbaa !63
  store ptr %1, ptr %5, align 8, !tbaa !63
  call void @llvm.lifetime.start.p0(i64 8, ptr %6) #15
  %9 = load ptr, ptr %4, align 8, !tbaa !63
  store ptr %9, ptr %6, align 8, !tbaa !84
  call void @llvm.lifetime.start.p0(i64 8, ptr %7) #15
  %10 = load ptr, ptr %5, align 8, !tbaa !63
  store ptr %10, ptr %7, align 8, !tbaa !84
  %11 = load ptr, ptr %6, align 8, !tbaa !84
  %12 = load ptr, ptr %11, align 8, !tbaa !49
  %13 = getelementptr inbounds nuw %struct.Agobj_s, ptr %12, i32 0, i32 0
  %14 = load i32, ptr %13, align 8
  %15 = lshr i32 %14, 4
  %16 = load ptr, ptr %7, align 8, !tbaa !84
  %17 = load ptr, ptr %16, align 8, !tbaa !49
  %18 = getelementptr inbounds nuw %struct.Agobj_s, ptr %17, i32 0, i32 0
  %19 = load i32, ptr %18, align 8
  %20 = lshr i32 %19, 4
  %21 = icmp slt i32 %15, %20
  br i1 %21, label %22, label %23

22:                                               ; preds = %2
  store i32 -1, ptr %3, align 4
  store i32 1, ptr %8, align 4
  br label %37

23:                                               ; preds = %2
  %24 = load ptr, ptr %6, align 8, !tbaa !84
  %25 = load ptr, ptr %24, align 8, !tbaa !49
  %26 = getelementptr inbounds nuw %struct.Agobj_s, ptr %25, i32 0, i32 0
  %27 = load i32, ptr %26, align 8
  %28 = lshr i32 %27, 4
  %29 = load ptr, ptr %7, align 8, !tbaa !84
  %30 = load ptr, ptr %29, align 8, !tbaa !49
  %31 = getelementptr inbounds nuw %struct.Agobj_s, ptr %30, i32 0, i32 0
  %32 = load i32, ptr %31, align 8
  %33 = lshr i32 %32, 4
  %34 = icmp sgt i32 %28, %33
  br i1 %34, label %35, label %36

35:                                               ; preds = %23
  store i32 1, ptr %3, align 4
  store i32 1, ptr %8, align 4
  br label %37

36:                                               ; preds = %23
  store i32 0, ptr %3, align 4
  store i32 1, ptr %8, align 4
  br label %37

37:                                               ; preds = %36, %35, %22
  call void @llvm.lifetime.end.p0(i64 8, ptr %7) #15
  call void @llvm.lifetime.end.p0(i64 8, ptr %6) #15
  %38 = load i32, ptr %3, align 4
  ret i32 %38
}