; Function Attrs: mustprogress nofree norecurse nosync nounwind willreturn memory(read, inaccessiblemem: none) uwtable
define internal range(i32 -1, 2) i32 @edgeidcmpf(ptr noundef readonly captures(none) %0, ptr noundef readonly captures(none) %1) #16 {
  %3 = load ptr, ptr %0, align 8, !tbaa !50
  %4 = load i32, ptr %3, align 8
  %5 = lshr i32 %4, 4
  %6 = load ptr, ptr %1, align 8, !tbaa !50
  %7 = load i32, ptr %6, align 8
  %8 = lshr i32 %7, 4
  %.0 = tail call i32 @llvm.ucmp.i32.i32(i32 %5, i32 %8)
  ret i32 %.0
}